(dp1
S'OriginalConfig'
p2
ccopy_reg
_reconstructor
p3
(cWMCore.Configuration
Configuration
p4
c__builtin__
object
p5
NtRp6
(dp7
S'Site'
p8
g3
(cWMCore.Configuration
ConfigSection
p9
g5
NtRp10
(dp11
S'_internal_skipChecks'
p12
I00
sS'_internal_documentation'
p13
S''
sS'_internal_settings'
p14
c__builtin__
set
p15
((lp16
S'blacklist'
p17
aS'storageSite'
p18
atRp19
sS'_internal_name'
p20
g8
sS'_internal_docstrings'
p21
(dp22
sg17
(lp23
sS'_internal_children'
p24
g15
((ltRp25
sg18
S'T2_CH_CERN'
p26
sS'_internal_parent_ref'
p27
NsbsS'_internal_sections'
p28
(lp29
S'General'
p30
aS'JobType'
p31
aS'Data'
p32
ag8
aS'User'
p33
aS'Debug'
p34
asg30
g3
(g9
g5
NtRp35
(dp36
S'workArea'
p37
S'/uscms_data/d3/zwang2/WorkingArea4/CMSSW_8_0_25/src/CMSDIJET/DijetRootTreeMaker/crab_job/output/'
p38
sg12
I00
sg13
S''
sg14
g15
((lp39
g37
aS'transferOutputs'
p40
aS'transferLogs'
p41
aS'requestName'
p42
atRp43
sg20
g30
sg21
(dp44
sg40
I01
sg24
g15
((ltRp45
sg42
S'GravitonToQuark_8000_2'
p46
sg27
Nsg41
I01
sbsS'_internal_webapps'
p47
(lp48
sg33
g3
(g9
g5
NtRp49
(dp50
g12
I00
sg13
S''
sg14
g15
((ltRp51
sg20
g33
sg21
(dp52
sg24
g15
((ltRp53
sg27
NsbsS'_internal_components'
p54
(lp55
sg34
g3
(g9
g5
NtRp56
(dp57
S'extraJDL'
p58
(lp59
S'+CMS_ALLOW_OVERFLOW=False'
p60
asg12
I00
sg13
S''
sg14
g15
((lp61
g58
atRp62
sg20
g34
sg21
(dp63
sg24
g15
((ltRp64
sg27
Nsbsg32
g3
(g9
g5
NtRp65
(dp66
S'inputDataset'
p67
S'/RSGravitonToQuarkQuark_kMpl01_M_8000_TuneCUETP8M1_13TeV_pythia8/RunIISummer16MiniAODv2-PUMoriond17_80X_mcRun2_asymptotic_2016_TrancheIV_v6-v1/MINIAODSIM'
p68
sS'outputDatasetTag'
p69
S'analysis'
p70
sg12
I00
sS'unitsPerJob'
p71
I1
sg13
S''
sg14
g15
((lp72
g67
ag69
aS'publication'
p73
ag71
aS'splitting'
p74
aS'outLFNDirBase'
p75
atRp76
sg20
g32
sg74
S'FileBased'
p77
sg21
(dp78
sg24
g15
((ltRp79
sg75
S'/store/group/phys_exotica/dijet/Dijet13TeV/TylerW/'
p80
sg27
Nsg73
I00
sbsg31
g3
(g9
g5
NtRp81
(dp82
g12
I00
sg13
S''
sg14
g15
((lp83
S'psetName'
p84
aS'pluginName'
p85
atRp86
sg20
g31
sg21
(dp87
sg85
S'Analysis'
p88
sg24
g15
((ltRp89
sg84
S'/uscms_data/d3/zwang2/WorkingArea4/CMSSW_8_0_25/src/CMSDIJET/DijetRootTreeMaker/prod/flat-MC-cfg_miniAOD.py'
p90
sg27
NsbsbsS'voGroup'
p91
S''
sS'Server'
p92
S'cmsweb.cern.ch'
p93
sS'instance'
p94
S'prod'
p95
sS'RequestName'
p96
V171209_224912:zhixing_crab_GravitonToQuark_8000_2
p97
sS'voRole'
p98
S'NULL'
p99
sS'Port'
p100
S''
s.