(dp1
S'OriginalConfig'
p2
ccopy_reg
_reconstructor
p3
(cWMCore.Configuration
Configuration
p4
c__builtin__
object
p5
NtRp6
(dp7
S'Site'
p8
g3
(cWMCore.Configuration
ConfigSection
p9
g5
NtRp10
(dp11
S'_internal_skipChecks'
p12
I00
sS'_internal_documentation'
p13
S''
sS'_internal_settings'
p14
c__builtin__
set
p15
((lp16
S'blacklist'
p17
aS'storageSite'
p18
atRp19
sS'_internal_name'
p20
g8
sS'_internal_docstrings'
p21
(dp22
sg17
(lp23
sS'_internal_children'
p24
g15
((ltRp25
sg18
S'T3_US_FNALLPC'
p26
sS'_internal_parent_ref'
p27
NsbsS'_internal_sections'
p28
(lp29
S'General'
p30
aS'JobType'
p31
aS'Data'
p32
ag8
aS'User'
p33
aS'Debug'
p34
asg30
g3
(g9
g5
NtRp35
(dp36
S'workArea'
p37
S'/uscms_data/d3/zwang2/WorkingArea4/CMSSW_8_0_25/src/CMSDIJET/DijetRootTreeMaker/crab_job/output/'
p38
sg12
I00
sg13
S''
sg14
g15
((lp39
g37
aS'transferOutputs'
p40
aS'transferLogs'
p41
aS'requestName'
p42
atRp43
sg20
g30
sg21
(dp44
sg40
I01
sg24
g15
((ltRp45
sg42
S'GravitonToQuark_8000_fermi'
p46
sg27
Nsg41
I01
sbsS'_internal_webapps'
p47
(lp48
sg33
g3
(g9
g5
NtRp49
(dp50
g12
I00
sg13
S''
sg14
g15
((ltRp51
sg20
g33
sg21
(dp52
sg24
g15
((ltRp53
sg27
NsbsS'_internal_components'
p54
(lp55
sg34
g3
(g9
g5
NtRp56
(dp57
S'extraJDL'
p58
(lp59
S'+CMS_ALLOW_OVERFLOW=False'
p60
asg12
I00
sg13
S''
sg14
g15
((lp61
g58
atRp62
sg20
g34
sg21
(dp63
sg24
g15
((ltRp64
sg27
Nsbsg32
g3
(g9
g5
NtRp65
(dp66
S'inputDataset'
p67
S'/RSGravitonToQuarkQuark_kMpl01_M_8000_TuneCUETP8M1_13TeV_pythia8/RunIISummer17MiniAOD-92X_upgrade2017_realistic_v10-v1/MINIAODSIM'
p68
sS'outputDatasetTag'
p69
S'analysis'
p70
sg12
I00
sS'unitsPerJob'
p71
I1
sg13
S''
sg14
g15
((lp72
g67
ag69
aS'publication'
p73
ag71
aS'splitting'
p74
aS'lumiMask'
p75
aS'outLFNDirBase'
p76
atRp77
sg20
g32
sg74
S'FileBased'
p78
sg21
(dp79
sg24
g15
((ltRp80
sg76
S'/store/group/phys_exotica/dijet/Dijet13TeV/TylerW/'
p81
sg27
Nsg75
S'json_DCSONLY.txt'
p82
sg73
I00
sbsg31
g3
(g9
g5
NtRp83
(dp84
g12
I00
sg13
S''
sg14
g15
((lp85
S'psetName'
p86
aS'pluginName'
p87
atRp88
sg20
g31
sg21
(dp89
sg87
S'Analysis'
p90
sg24
g15
((ltRp91
sg86
S'/uscms_data/d3/zwang2/WorkingArea4/CMSSW_8_0_25/src/CMSDIJET/DijetRootTreeMaker/prod/flat-MC-cfg_miniAOD.py'
p92
sg27
NsbsbsS'voGroup'
p93
S''
sS'Server'
p94
S'cmsweb.cern.ch'
p95
sS'instance'
p96
S'prod'
p97
sS'RequestName'
p98
V171209_230750:zhixing_crab_GravitonToQuark_8000_fermi
p99
sS'voRole'
p100
S'NULL'
p101
sS'Port'
p102
S''
s.